(dp0
S'900'
p1
(lp2
S'passwd'
p3
aS'15000'
p4
aS'14895.0'
p5
aS'1'
p6
asS'800'
p7
(lp8
S'pass'
p9
aS'15000'
p10
ag10
aS'1'
p11
asS'700'
p12
(lp13
S'password'
p14
ag10
ag10
ag11
asS'400'
p15
(lp16
S'paass'
p17
ag10
ag10
ag11
as.